target datalayout = "e-m:e-p270:32:32-p271:32:32-p272:64:64-i64:64-i128:128-f80:128-n8:16:32:64-S128"
target triple = "x86_64-pc-linux-gnu"

%struct.Int128_ = type { i64, i64 }

; Function Attrs: nounwind uwtable
define dso_local i32 @int128_ucomp64(i64 %0, i64 %1, i64 noundef %2) #0 {
  %4 = alloca i32, align 4
  %5 = alloca %struct.Int128_, align 8
  %6 = alloca i64, align 8
  %7 = getelementptr inbounds { i64, i64 }, ptr %5, i32 0, i32 0
  store i64 %0, ptr %7, align 8
  %8 = getelementptr inbounds { i64, i64 }, ptr %5, i32 0, i32 1
  store i64 %1, ptr %8, align 8
  store i64 %2, ptr %6, align 8
  %9 = getelementptr inbounds %struct.Int128_, ptr %5, i32 0, i32 0
  %10 = load i64, ptr %9, align 8
  %11 = icmp ne i64 %10, 0
  br i1 %11, label %12, label %13

12:                                               ; preds = %3
  store i32 1, ptr %4, align 4
  br label %25

13:                                               ; preds = %3
  %14 = getelementptr inbounds %struct.Int128_, ptr %5, i32 0, i32 1
  %15 = load i64, ptr %14, align 8
  %16 = load i64, ptr %6, align 8
  %17 = icmp eq i64 %15, %16
  br i1 %17, label %18, label %19

18:                                               ; preds = %13
  store i32 0, ptr %4, align 4
  br label %25

19:                                               ; preds = %13
  %20 = getelementptr inbounds %struct.Int128_, ptr %5, i32 0, i32 1
  %21 = load i64, ptr %20, align 8
  %22 = load i64, ptr %6, align 8
  %23 = icmp ugt i64 %21, %22
  %24 = select i1 %23, i32 1, i32 -1
  store i32 %24, ptr %4, align 4
  br label %25

25:                                               ; preds = %19, %18, %12
  %26 = load i32, ptr %4, align 4
  ret i32 %26
}