; Function Attrs: mustprogress nofree norecurse nosync nounwind willreturn memory(none) uwtable
define dso_local range(i32 -1, 2) i32 @int128_ucomp64(i64 %0, i64 %1, i64 noundef %2) local_unnamed_addr #1 {
  %.not = icmp eq i64 %0, 0
  br i1 %.not, label %4, label %9

4:                                                ; preds = %3
  %5 = icmp eq i64 %1, %2
  br i1 %5, label %9, label %6

6:                                                ; preds = %4
  %7 = icmp ugt i64 %1, %2
  %8 = select i1 %7, i32 1, i32 -1
  br label %9

9:                                                ; preds = %4, %3, %6
  %.0 = phi i32 [ %8, %6 ], [ 1, %3 ], [ 0, %4 ]
  ret i32 %.0
}